target datalayout = "e-m:e-p270:32:32-p271:32:32-p272:64:64-i64:64-i128:128-f80:128-n8:16:32:64-S128"
target triple = "x86_64-pc-linux-gnu"

%"class.datalog::execution_context" = type <{ ptr, %class.vector, %class.u_map, ptr, i32, %"struct.datalog::execution_context::stats", [4 x i8] }>
%class.vector = type { ptr }
%class.u_map = type { %class.map }
%class.map = type { %class.table2map }
%class.table2map = type { %class.core_hashtable }
%class.core_hashtable = type <{ ptr, i32, i32, i32, [4 x i8] }>
%"struct.datalog::execution_context::stats" = type { i32, i32, i32, i32, i32, i32, i32, i32, i32, i32, i32, i32, i32, i32 }
%"class.datalog::context" = type <{ ptr, ptr, ptr, %class.params_ref, ptr, i8, i8, [6 x i8], %class.symbol, %"class.datalog::dl_decl_util", %class.th_rewriter, %class.var_subst, %"class.datalog::rule_manager", %"class.datalog::context::contains_pred", %"class.datalog::rule_properties", %"class.datalog::rule_transformer", %class.trail_stack, %class.ref_vector.46, %class.bind_variables, %class.obj_map.63, %class.obj_hashtable.68, %class.map.74, %class.obj_map.78, %"class.datalog::rule_set", %"class.datalog::rule_set", %class.expr_free_vars, i32, [4 x i8], %class.ref_vector, %class.svector.61, %class.vector.107, %class.ref_vector, %class.ref, %class.ref.108, ptr, %class.scoped_ptr.109, i8, i8, i8, i8, i32, %class.obj_ref, %class.obj_ref, i32, [4 x i8] }>
%class.params_ref = type { ptr }
%class.symbol = type { ptr }
%"class.datalog::dl_decl_util" = type <{ ptr, %class.scoped_ptr, %class.scoped_ptr.0, i32, [4 x i8] }>
%class.scoped_ptr = type { ptr }
%class.scoped_ptr.0 = type { ptr }
%class.th_rewriter = type { ptr, %class.params_ref }
%class.var_subst = type { %class.beta_reducer, i8, [7 x i8] }
%class.beta_reducer = type <{ %class.rewriter_tpl, [8 x i8] }>
%class.rewriter_tpl = type { %class.rewriter_core, ptr, i32, %class.ptr_vector.3, %class.var_shifter, %class.inv_var_shifter, %class.obj_ref, %class.obj_ref.14, %class.obj_ref.14, %class.svector.15 }
%class.rewriter_core = type { ptr, ptr, i8, i8, %class.ptr_vector, ptr, %class.svector, %class.ref_vector, %class.ptr_vector, ptr, %class.ref_vector.5, %class.obj_hashtable, ptr, i32, %class.svector.12 }
%class.svector = type { %class.vector.2 }
%class.vector.2 = type { ptr }
%class.ptr_vector = type { %class.vector.1 }
%class.vector.1 = type { ptr }
%class.ref_vector.5 = type { %class.ref_vector_core.6 }
%class.ref_vector_core.6 = type { %class.ref_manager_wrapper.7, %class.ptr_vector.8 }
%class.ref_manager_wrapper.7 = type { ptr }
%class.ptr_vector.8 = type { %class.vector.9 }
%class.vector.9 = type { ptr }
%class.obj_hashtable = type { %class.core_hashtable.base.11, [4 x i8] }
%class.core_hashtable.base.11 = type <{ ptr, i32, i32, i32 }>
%class.svector.12 = type { %class.vector.13 }
%class.vector.13 = type { ptr }
%class.ptr_vector.3 = type { %class.vector.4 }
%class.vector.4 = type { ptr }
%class.var_shifter = type <{ %class.var_shifter_core, i32, i32, i32, [4 x i8] }>
%class.var_shifter_core = type { %class.rewriter_core }
%class.inv_var_shifter = type <{ %class.var_shifter_core, i32, [4 x i8] }>
%class.obj_ref.14 = type { ptr, ptr }
%class.svector.15 = type { %class.vector.16 }
%class.vector.16 = type { ptr }
%"class.datalog::rule_manager" = type { ptr, ptr, %"class.datalog::rule_counter", %class.used_vars, %class.uint_set, %class.expr_free_vars, %class.ref_vector.5, %class.obj_ref.14, %class.ref_vector, %class.svector.28, %class.hnf, %class.qe_lite, %class.label_rewriter, %"struct.datalog::uninterpreted_function_finder_proc", %"struct.datalog::quantifier_finder_proc", [5 x i8], %class.expr_sparse_mark, %"struct.datalog::fd_finder_proc" }
%"class.datalog::rule_counter" = type { %class.var_counter }
%class.var_counter = type { %class.counter, %class.ast_fast_mark, %class.expr_free_vars, %class.ptr_vector.3, %class.svector.15 }
%class.counter = type { %class.u_map.17 }
%class.u_map.17 = type { %class.map.18 }
%class.map.18 = type { %class.table2map.19 }
%class.table2map.19 = type { %class.core_hashtable.20 }
%class.core_hashtable.20 = type <{ ptr, i32, i32, i32, [4 x i8] }>
%class.ast_fast_mark = type { %class.ptr_buffer }
%class.ptr_buffer = type { %class.buffer }
%class.buffer = type { ptr, i32, i32, [128 x i8] }
%class.used_vars = type { %class.ptr_vector.22, %class.hashtable, %class.svector.26, i32, i32 }
%class.ptr_vector.22 = type { %class.vector.23 }
%class.vector.23 = type { ptr }
%class.hashtable = type { %class.core_hashtable.base.25, [4 x i8] }
%class.core_hashtable.base.25 = type <{ ptr, i32, i32, i32 }>
%class.svector.26 = type { %class.vector.27 }
%class.vector.27 = type { ptr }
%class.uint_set = type { %class.svector.15 }
%class.svector.28 = type { %class.vector.29 }
%class.vector.29 = type { ptr }
%class.hnf = type { ptr }
%class.qe_lite = type { ptr }
%class.label_rewriter = type { i32, %class.rewriter_tpl.30 }
%class.rewriter_tpl.30 = type { %class.rewriter_core, ptr, i32, %class.ptr_vector.3, %class.var_shifter, %class.inv_var_shifter, %class.obj_ref, %class.obj_ref.14, %class.obj_ref.14, %class.svector.15 }
%"struct.datalog::uninterpreted_function_finder_proc" = type { ptr, %"class.datatype::util", %"class.datalog::dl_decl_util", i8, ptr }
%"class.datatype::util" = type { ptr, i32, ptr }
%"struct.datalog::quantifier_finder_proc" = type { i8, i8, i8 }
%class.expr_sparse_mark = type { %class.obj_hashtable }
%"struct.datalog::fd_finder_proc" = type <{ ptr, %class.bv_util, i8, [7 x i8] }>
%class.bv_util = type { %class.bv_recognizers, ptr, ptr }
%class.bv_recognizers = type { i32 }
%"class.datalog::context::contains_pred" = type { %class.i_expr_pred, ptr }
%class.i_expr_pred = type { ptr }
%"class.datalog::rule_properties" = type <{ ptr, ptr, ptr, ptr, %"class.datatype::util", %"class.datalog::dl_decl_util", %class.arith_util, %class.bv_util, %class.array_util, %"class.recfun::util", i8, [7 x i8], ptr, %class.obj_map, %class.obj_map.35, %class.ptr_vector.40, %class.ptr_vector.40, %class.ptr_vector.40, i8, i8, [6 x i8] }>
%class.arith_util = type { ptr, ptr }
%class.array_util = type { %class.array_recognizers, ptr }
%class.array_recognizers = type { i32 }
%"class.recfun::util" = type { ptr, i32, ptr }
%class.obj_map = type { %class.core_hashtable.31 }
%class.core_hashtable.31 = type <{ ptr, i32, i32, i32, [4 x i8] }>
%class.obj_map.35 = type { %class.core_hashtable.36 }
%class.core_hashtable.36 = type <{ ptr, i32, i32, i32, [4 x i8] }>
%class.ptr_vector.40 = type { %class.vector.41 }
%class.vector.41 = type { ptr }
%"class.datalog::rule_transformer" = type { ptr, ptr, i8, %class.svector.42 }
%class.svector.42 = type { %class.vector.43 }
%class.vector.43 = type { ptr }
%class.trail_stack = type { %class.ptr_vector.44, %class.svector.15, %class.region }
%class.ptr_vector.44 = type { %class.vector.45 }
%class.vector.45 = type { ptr }
%class.region = type { ptr, ptr, ptr, ptr, ptr }
%class.ref_vector.46 = type { %class.ref_vector_core.47 }
%class.ref_vector_core.47 = type { %class.ref_manager_wrapper.48, %class.ptr_vector.49 }
%class.ref_manager_wrapper.48 = type { ptr }
%class.ptr_vector.49 = type { %class.vector.50 }
%class.vector.50 = type { ptr }
%class.bind_variables = type { ptr, %class.ref_vector.5, %class.obj_map.51, %class.obj_map.56, %class.ref_vector, %class.ptr_vector.22, %class.svector.61, %class.ptr_vector.3, %class.ptr_vector.3 }
%class.obj_map.51 = type { %class.core_hashtable.52 }
%class.core_hashtable.52 = type <{ ptr, i32, i32, i32, [4 x i8] }>
%class.obj_map.56 = type { %class.core_hashtable.57 }
%class.core_hashtable.57 = type <{ ptr, i32, i32, i32, [4 x i8] }>
%class.obj_map.63 = type { %class.core_hashtable.64 }
%class.core_hashtable.64 = type <{ ptr, i32, i32, i32, [4 x i8] }>
%class.obj_hashtable.68 = type { %class.core_hashtable.base.72, [4 x i8] }
%class.core_hashtable.base.72 = type <{ ptr, i32, i32, i32 }>
%class.map.74 = type { %class.table2map.75 }
%class.table2map.75 = type { %class.core_hashtable.76 }
%class.core_hashtable.76 = type <{ ptr, i32, i32, i32, [4 x i8] }>
%class.obj_map.78 = type { %class.core_hashtable.79 }
%class.core_hashtable.79 = type <{ ptr, i32, i32, i32, [4 x i8] }>
%"class.datalog::rule_set" = type { ptr, ptr, %class.ref_vector.83, %class.obj_map.86, %"class.datalog::rule_dependencies", %class.scoped_ptr.96, %class.obj_hashtable.68, %class.obj_map.97, %class.obj_map.97, %class.ref_vector.102, %class.ptr_vector.40 }
%class.ref_vector.83 = type { %class.ref_vector_core.84 }
%class.ref_vector_core.84 = type { %class.ref_manager_wrapper.85, %class.ptr_vector.40 }
%class.ref_manager_wrapper.85 = type { ptr }
%class.obj_map.86 = type { %class.core_hashtable.87 }
%class.core_hashtable.87 = type <{ ptr, i32, i32, i32, [4 x i8] }>
%"class.datalog::rule_dependencies" = type { %class.obj_map.91, ptr, %class.ptr_vector.3, %class.expr_sparse_mark, %class.obj_hashtable.68 }
%class.obj_map.91 = type { %class.core_hashtable.92 }
%class.core_hashtable.92 = type <{ ptr, i32, i32, i32, [4 x i8] }>
%class.scoped_ptr.96 = type { ptr }
%class.obj_map.97 = type { %class.core_hashtable.98 }
%class.core_hashtable.98 = type <{ ptr, i32, i32, i32, [4 x i8] }>
%class.ref_vector.102 = type { %class.ref_vector_core.103 }
%class.ref_vector_core.103 = type { %class.ref_manager_wrapper.104, %class.ptr_vector.105 }
%class.ref_manager_wrapper.104 = type { ptr }
%class.ptr_vector.105 = type { %class.vector.106 }
%class.vector.106 = type { ptr }
%class.expr_free_vars = type { %class.expr_sparse_mark, %class.ptr_vector.22, %class.ptr_vector.3 }
%class.svector.61 = type { %class.vector.62 }
%class.vector.62 = type { ptr }
%class.vector.107 = type { ptr }
%class.ref_vector = type { %class.ref_vector_core }
%class.ref_vector_core = type { %class.ref_manager_wrapper, %class.ptr_vector.3 }
%class.ref_manager_wrapper = type { ptr }
%class.ref = type { ptr }
%class.ref.108 = type { ptr }
%class.scoped_ptr.109 = type { ptr }
%class.obj_ref = type { ptr, ptr }

@_ZTIN7datalog16rel_context_baseE = linkonce_odr hidden constant { ptr, ptr, ptr } { ptr getelementptr inbounds (ptr, ptr @_ZTVN10__cxxabiv120__si_class_type_infoE, i64 2), ptr @_ZTSN7datalog16rel_context_baseE, ptr @_ZTIN7datalog11engine_baseE }, comdat, align 8
@_ZTIN7datalog11rel_contextE = external constant ptr

; Function Attrs: mustprogress uwtable
define linkonce_odr hidden noundef ptr @_ZN7datalog7context15get_rel_contextEv(ptr noundef nonnull align 8 dereferenceable(3028) %0) #4 comdat align 2 {
  %2 = alloca ptr, align 8
  store ptr %0, ptr %2, align 8, !tbaa !8
  %3 = load ptr, ptr %2, align 8
  call void @_ZN7datalog7context13ensure_engineEP4expr(ptr noundef nonnull align 8 dereferenceable(3028) %3, ptr noundef null)
  %4 = getelementptr inbounds nuw %"class.datalog::context", ptr %3, i32 0, i32 34
  %5 = load ptr, ptr %4, align 8, !tbaa !40
  ret ptr %5
}

; Function Attrs: mustprogress uwtable
define hidden noundef nonnull align 8 dereferenceable(432) ptr @_ZNK7datalog17execution_context15get_rel_contextEv(ptr noundef nonnull align 8 dereferenceable(108) %0) #4 align 2 {
  %2 = alloca ptr, align 8
  store ptr %0, ptr %2, align 8, !tbaa !3
  %3 = load ptr, ptr %2, align 8
  %4 = getelementptr inbounds nuw %"class.datalog::execution_context", ptr %3, i32 0, i32 0
  %5 = load ptr, ptr %4, align 8, !tbaa !39
  %6 = call noundef ptr @_ZN7datalog7context15get_rel_contextEv(ptr noundef nonnull align 8 dereferenceable(3028) %5)
  %7 = call ptr @__dynamic_cast(ptr %6, ptr @_ZTIN7datalog16rel_context_baseE, ptr @_ZTIN7datalog11rel_contextE, i64 0) #3
  %8 = icmp eq ptr %7, null
  br i1 %8, label %9, label %10

9:                                                ; preds = %1
  call void @__cxa_bad_cast() #23
  unreachable

10:                                               ; preds = %1
  ret ptr %7
}