; Function Attrs: mustprogress uwtable
define hidden noundef nonnull align 8 dereferenceable(432) ptr @_ZNK7datalog17execution_context15get_rel_contextEv(ptr noundef nonnull readonly align 8 captures(none) dereferenceable(108) %0) local_unnamed_addr #3 align 2 {
  %2 = load ptr, ptr %0, align 8, !tbaa !48
  tail call void @_ZN7datalog7context13ensure_engineEP4expr(ptr noundef nonnull align 8 dereferenceable(3028) %2, ptr noundef null)
  %3 = getelementptr inbounds nuw i8, ptr %2, i64 2968
  %4 = load ptr, ptr %3, align 8, !tbaa !49
  %5 = tail call ptr @__dynamic_cast(ptr %4, ptr nonnull @_ZTIN7datalog16rel_context_baseE, ptr nonnull @_ZTIN7datalog11rel_contextE, i64 0) #25
  %6 = icmp eq ptr %5, null
  br i1 %6, label %7, label %8

7:                                                ; preds = %1
  tail call void @__cxa_bad_cast() #28
  unreachable

8:                                                ; preds = %1
  ret ptr %5
}